target datalayout = "e-m:e-p270:32:32-p271:32:32-p272:64:64-i64:64-i128:128-f80:128-n8:16:32:64-S128"
target triple = "x86_64-pc-linux-gnu"

%struct.b2World = type { %struct.b2ArenaAllocator, %struct.b2BroadPhase, %struct.b2ConstraintGraph, %struct.b2IdPool, %struct.b2BodyArray, %struct.b2IdPool, %struct.b2SolverSetArray, %struct.b2IdPool, %struct.b2JointArray, %struct.b2IdPool, %struct.b2ContactArray, %struct.b2IdPool, %struct.b2IslandArray, %struct.b2IdPool, %struct.b2IdPool, %struct.b2ShapeArray, %struct.b2ChainShapeArray, %struct.b2SensorArray, %struct.b2TaskContextArray, %struct.b2SensorTaskContextArray, %struct.b2BodyMoveEventArray, %struct.b2SensorBeginTouchEventArray, %struct.b2ContactBeginTouchEventArray, [2 x %struct.b2SensorEndTouchEventArray], [2 x %struct.b2ContactEndTouchEventArray], i32, %struct.b2ContactHitEventArray, %struct.b2BitSet, %struct.b2BitSet, %struct.b2BitSet, i64, i32, %struct.b2Vec2, float, float, float, float, float, float, float, float, ptr, ptr, i16, %struct.b2Profile, ptr, ptr, ptr, ptr, i32, ptr, ptr, ptr, ptr, ptr, float, i32, i32, i16, i8, i8, i8, i8, i8, i8 }
%struct.b2ArenaAllocator = type { ptr, i32, i32, i32, i32, %struct.b2ArenaEntryArray }
%struct.b2ArenaEntryArray = type { ptr, i32, i32 }
%struct.b2BroadPhase = type { [3 x %struct.b2DynamicTree], i32, %struct.b2HashSet, %struct.b2IntArray, ptr, ptr, i32, %struct.b2AtomicInt, %struct.b2HashSet }
%struct.b2DynamicTree = type { ptr, i32, i32, i32, i32, i32, ptr, ptr, ptr, ptr, i32 }
%struct.b2IntArray = type { ptr, i32, i32 }
%struct.b2AtomicInt = type { i32 }
%struct.b2HashSet = type { ptr, i32, i32 }
%struct.b2ConstraintGraph = type { [12 x %struct.b2GraphColor] }
%struct.b2GraphColor = type { %struct.b2BitSet, %struct.b2ContactSimArray, %struct.b2JointSimArray, %union.anon }
%struct.b2ContactSimArray = type { ptr, i32, i32 }
%struct.b2JointSimArray = type { ptr, i32, i32 }
%union.anon = type { ptr }
%struct.b2BodyArray = type { ptr, i32, i32 }
%struct.b2SolverSetArray = type { ptr, i32, i32 }
%struct.b2JointArray = type { ptr, i32, i32 }
%struct.b2ContactArray = type { ptr, i32, i32 }
%struct.b2IslandArray = type { ptr, i32, i32 }
%struct.b2IdPool = type { %struct.b2IntArray, i32 }
%struct.b2ShapeArray = type { ptr, i32, i32 }
%struct.b2ChainShapeArray = type { ptr, i32, i32 }
%struct.b2SensorArray = type { ptr, i32, i32 }
%struct.b2TaskContextArray = type { ptr, i32, i32 }
%struct.b2SensorTaskContextArray = type { ptr, i32, i32 }
%struct.b2BodyMoveEventArray = type { ptr, i32, i32 }
%struct.b2SensorBeginTouchEventArray = type { ptr, i32, i32 }
%struct.b2ContactBeginTouchEventArray = type { ptr, i32, i32 }
%struct.b2SensorEndTouchEventArray = type { ptr, i32, i32 }
%struct.b2ContactEndTouchEventArray = type { ptr, i32, i32 }
%struct.b2ContactHitEventArray = type { ptr, i32, i32 }
%struct.b2BitSet = type { ptr, i32, i32 }
%struct.b2Vec2 = type { float, float }
%struct.b2Profile = type { float, float, float, float, float, float, float, float, float, float, float, float, float, float, float, float, float, float, float, float, float, float }
%struct.b2WorldId = type { i16, i16 }
%struct.b2ContactEvents = type { ptr, ptr, ptr, i32, i32, i32 }

@b2_worlds = hidden global [128 x %struct.b2World] zeroinitializer, align 16

; Function Attrs: nounwind uwtable
define hidden ptr @b2GetWorldFromId(i32 %0) #0 {
  %2 = alloca %struct.b2WorldId, align 2
  %3 = alloca ptr, align 8
  store i32 %0, ptr %2, align 2
  call void @llvm.lifetime.start.p0(i64 8, ptr %3) #10
  %4 = getelementptr inbounds nuw %struct.b2WorldId, ptr %2, i32 0, i32 0
  %5 = load i16, ptr %4, align 2, !tbaa !44
  %6 = zext i16 %5 to i32
  %7 = sub nsw i32 %6, 1
  %8 = sext i32 %7 to i64
  %9 = getelementptr inbounds %struct.b2World, ptr @b2_worlds, i64 %8
  store ptr %9, ptr %3, align 8, !tbaa !47
  %10 = load ptr, ptr %3, align 8, !tbaa !47
  call void @llvm.lifetime.end.p0(i64 8, ptr %3) #10
  ret ptr %10
}

; Function Attrs: nounwind uwtable
define void @b2World_GetContactEvents(ptr dead_on_unwind noalias writable sret(%struct.b2ContactEvents) align 8 %0, i32 %1) #0 {
  %3 = alloca %struct.b2WorldId, align 2
  %4 = alloca ptr, align 8
  %5 = alloca i32, align 4
  %6 = alloca i32, align 4
  %7 = alloca i32, align 4
  %8 = alloca i32, align 4
  %9 = alloca i32, align 4
  store i32 %1, ptr %3, align 2
  call void @llvm.lifetime.start.p0(i64 8, ptr %4) #10
  %10 = load i32, ptr %3, align 2
  %11 = call ptr @b2GetWorldFromId(i32 %10)
  store ptr %11, ptr %4, align 8, !tbaa !47
  %12 = load ptr, ptr %4, align 8, !tbaa !47
  %13 = getelementptr inbounds nuw %struct.b2World, ptr %12, i32 0, i32 60
  %14 = load i8, ptr %13, align 1, !tbaa !49, !range !90, !noundef !91
  %15 = trunc i8 %14 to i1
  br i1 %15, label %16, label %17

16:                                               ; preds = %2
  call void @llvm.memset.p0.i64(ptr align 8 %0, i8 0, i64 40, i1 false)
  store i32 1, ptr %5, align 4
  br label %62

17:                                               ; preds = %2
  call void @llvm.lifetime.start.p0(i64 4, ptr %6) #10
  %18 = load ptr, ptr %4, align 8, !tbaa !47
  %19 = getelementptr inbounds nuw %struct.b2World, ptr %18, i32 0, i32 25
  %20 = load i32, ptr %19, align 8, !tbaa !157
  %21 = sub nsw i32 1, %20
  store i32 %21, ptr %6, align 4, !tbaa !3
  call void @llvm.lifetime.start.p0(i64 4, ptr %7) #10
  %22 = load ptr, ptr %4, align 8, !tbaa !47
  %23 = getelementptr inbounds nuw %struct.b2World, ptr %22, i32 0, i32 22
  %24 = getelementptr inbounds nuw %struct.b2ContactBeginTouchEventArray, ptr %23, i32 0, i32 1
  %25 = load i32, ptr %24, align 8, !tbaa !430
  store i32 %25, ptr %7, align 4, !tbaa !3
  call void @llvm.lifetime.start.p0(i64 4, ptr %8) #10
  %26 = load ptr, ptr %4, align 8, !tbaa !47
  %27 = getelementptr inbounds nuw %struct.b2World, ptr %26, i32 0, i32 24
  %28 = load i32, ptr %6, align 4, !tbaa !3
  %29 = sext i32 %28 to i64
  %30 = getelementptr inbounds [2 x %struct.b2ContactEndTouchEventArray], ptr %27, i64 0, i64 %29
  %31 = getelementptr inbounds nuw %struct.b2ContactEndTouchEventArray, ptr %30, i32 0, i32 1
  %32 = load i32, ptr %31, align 8, !tbaa !23
  store i32 %32, ptr %8, align 4, !tbaa !3
  call void @llvm.lifetime.start.p0(i64 4, ptr %9) #10
  %33 = load ptr, ptr %4, align 8, !tbaa !47
  %34 = getelementptr inbounds nuw %struct.b2World, ptr %33, i32 0, i32 26
  %35 = getelementptr inbounds nuw %struct.b2ContactHitEventArray, ptr %34, i32 0, i32 1
  %36 = load i32, ptr %35, align 8, !tbaa !431
  store i32 %36, ptr %9, align 4, !tbaa !3
  %37 = getelementptr inbounds nuw %struct.b2ContactEvents, ptr %0, i32 0, i32 0
  %38 = load ptr, ptr %4, align 8, !tbaa !47
  %39 = getelementptr inbounds nuw %struct.b2World, ptr %38, i32 0, i32 22
  %40 = getelementptr inbounds nuw %struct.b2ContactBeginTouchEventArray, ptr %39, i32 0, i32 0
  %41 = load ptr, ptr %40, align 8, !tbaa !432
  store ptr %41, ptr %37, align 8, !tbaa !433
  %42 = getelementptr inbounds nuw %struct.b2ContactEvents, ptr %0, i32 0, i32 1
  %43 = load ptr, ptr %4, align 8, !tbaa !47
  %44 = getelementptr inbounds nuw %struct.b2World, ptr %43, i32 0, i32 24
  %45 = load i32, ptr %6, align 4, !tbaa !3
  %46 = sext i32 %45 to i64
  %47 = getelementptr inbounds [2 x %struct.b2ContactEndTouchEventArray], ptr %44, i64 0, i64 %46
  %48 = getelementptr inbounds nuw %struct.b2ContactEndTouchEventArray, ptr %47, i32 0, i32 0
  %49 = load ptr, ptr %48, align 8, !tbaa !19
  store ptr %49, ptr %42, align 8, !tbaa !435
  %50 = getelementptr inbounds nuw %struct.b2ContactEvents, ptr %0, i32 0, i32 2
  %51 = load ptr, ptr %4, align 8, !tbaa !47
  %52 = getelementptr inbounds nuw %struct.b2World, ptr %51, i32 0, i32 26
  %53 = getelementptr inbounds nuw %struct.b2ContactHitEventArray, ptr %52, i32 0, i32 0
  %54 = load ptr, ptr %53, align 8, !tbaa !436
  store ptr %54, ptr %50, align 8, !tbaa !437
  %55 = getelementptr inbounds nuw %struct.b2ContactEvents, ptr %0, i32 0, i32 3
  %56 = load i32, ptr %7, align 4, !tbaa !3
  store i32 %56, ptr %55, align 8, !tbaa !438
  %57 = getelementptr inbounds nuw %struct.b2ContactEvents, ptr %0, i32 0, i32 4
  %58 = load i32, ptr %8, align 4, !tbaa !3
  store i32 %58, ptr %57, align 4, !tbaa !439
  %59 = getelementptr inbounds nuw %struct.b2ContactEvents, ptr %0, i32 0, i32 5
  %60 = load i32, ptr %9, align 4, !tbaa !3
  store i32 %60, ptr %59, align 8, !tbaa !440
  %61 = getelementptr i8, ptr %0, i64 36
  call void @llvm.memset.p0.i64(ptr align 4 %61, i8 0, i64 4, i1 false)
  store i32 1, ptr %5, align 4
  call void @llvm.lifetime.end.p0(i64 4, ptr %9) #10
  call void @llvm.lifetime.end.p0(i64 4, ptr %8) #10
  call void @llvm.lifetime.end.p0(i64 4, ptr %7) #10
  call void @llvm.lifetime.end.p0(i64 4, ptr %6) #10
  br label %62

62:                                               ; preds = %17, %16
  call void @llvm.lifetime.end.p0(i64 8, ptr %4) #10
  ret void
}