; Function Attrs: mustprogress nofree norecurse nosync nounwind willreturn memory(read, argmem: write, inaccessiblemem: none) uwtable
define void @b2World_GetContactEvents(ptr dead_on_unwind noalias writable writeonly sret(%struct.b2ContactEvents) align 8 captures(none) initializes((0, 40)) %0, i32 %1) local_unnamed_addr #10 {
  %3 = and i32 %1, 65535
  %4 = zext nneg i32 %3 to i64
  %5 = getelementptr %struct.b2World, ptr @b2_worlds, i64 %4
  %6 = getelementptr i8, ptr %5, i64 -9
  %7 = load i8, ptr %6, align 1, !tbaa !35, !range !77, !noundef !78
  %8 = trunc nuw i8 %7 to i1
  br i1 %8, label %9, label %10

9:                                                ; preds = %2
  tail call void @llvm.memset.p0.i64(ptr noundef nonnull align 8 dereferenceable(40) %0, i8 0, i64 40, i1 false)
  br label %34

10:                                               ; preds = %2
  %11 = getelementptr i8, ptr %5, i64 -344
  %12 = load i32, ptr %11, align 8, !tbaa !107
  %13 = sub nsw i32 1, %12
  %14 = getelementptr i8, ptr %5, i64 -424
  %15 = getelementptr i8, ptr %5, i64 -416
  %16 = load i32, ptr %15, align 16, !tbaa !360
  %17 = getelementptr i8, ptr %5, i64 -376
  %18 = sext i32 %13 to i64
  %19 = getelementptr inbounds [2 x %struct.b2ContactEndTouchEventArray], ptr %17, i64 0, i64 %18
  %20 = getelementptr inbounds nuw i8, ptr %19, i64 8
  %21 = load i32, ptr %20, align 16, !tbaa !188
  %22 = getelementptr i8, ptr %5, i64 -336
  %23 = getelementptr i8, ptr %5, i64 -328
  %24 = load i32, ptr %23, align 8, !tbaa !361
  %25 = load ptr, ptr %14, align 8, !tbaa !362
  store ptr %25, ptr %0, align 8, !tbaa !363
  %26 = getelementptr inbounds nuw i8, ptr %0, i64 8
  %27 = load ptr, ptr %19, align 8, !tbaa !18
  store ptr %27, ptr %26, align 8, !tbaa !365
  %28 = getelementptr inbounds nuw i8, ptr %0, i64 16
  %29 = load ptr, ptr %22, align 16, !tbaa !366
  store ptr %29, ptr %28, align 8, !tbaa !367
  %30 = getelementptr inbounds nuw i8, ptr %0, i64 24
  store i32 %16, ptr %30, align 8, !tbaa !368
  %31 = getelementptr inbounds nuw i8, ptr %0, i64 28
  store i32 %21, ptr %31, align 4, !tbaa !369
  %32 = getelementptr inbounds nuw i8, ptr %0, i64 32
  store i32 %24, ptr %32, align 8, !tbaa !370
  %33 = getelementptr inbounds nuw i8, ptr %0, i64 36
  store i32 0, ptr %33, align 4
  br label %34

34:                                               ; preds = %10, %9
  ret void
}